target datalayout = "e-m:e-p270:32:32-p271:32:32-p272:64:64-i64:64-i128:128-f80:128-n8:16:32:64-S128"
target triple = "x86_64-pc-linux-gnu"

; Function Attrs: inlinehint mustprogress nounwind uwtable
define linkonce_odr noundef zeroext i1 @_ZN6google8protobuf13ascii_isspaceEc(i8 noundef signext %0) #8 comdat {
  %2 = alloca i8, align 1
  store i8 %0, ptr %2, align 1, !tbaa !10
  %3 = load i8, ptr %2, align 1, !tbaa !10
  %4 = sext i8 %3 to i32
  %5 = icmp eq i32 %4, 32
  br i1 %5, label %26, label %6

6:                                                ; preds = %1
  %7 = load i8, ptr %2, align 1, !tbaa !10
  %8 = sext i8 %7 to i32
  %9 = icmp eq i32 %8, 9
  br i1 %9, label %26, label %10

10:                                               ; preds = %6
  %11 = load i8, ptr %2, align 1, !tbaa !10
  %12 = sext i8 %11 to i32
  %13 = icmp eq i32 %12, 10
  br i1 %13, label %26, label %14

14:                                               ; preds = %10
  %15 = load i8, ptr %2, align 1, !tbaa !10
  %16 = sext i8 %15 to i32
  %17 = icmp eq i32 %16, 11
  br i1 %17, label %26, label %18

18:                                               ; preds = %14
  %19 = load i8, ptr %2, align 1, !tbaa !10
  %20 = sext i8 %19 to i32
  %21 = icmp eq i32 %20, 12
  br i1 %21, label %26, label %22

22:                                               ; preds = %18
  %23 = load i8, ptr %2, align 1, !tbaa !10
  %24 = sext i8 %23 to i32
  %25 = icmp eq i32 %24, 13
  br label %26

26:                                               ; preds = %22, %18, %14, %10, %6, %1
  %27 = phi i1 [ true, %18 ], [ true, %14 ], [ true, %10 ], [ true, %6 ], [ true, %1 ], [ %25, %22 ]
  ret i1 %27
}

; Function Attrs: mustprogress uwtable
define noundef zeroext i1 @_ZN6google8protobuf11safe_strtodEPKcPd(ptr noundef %0, ptr noundef %1) #4 {
  %3 = alloca ptr, align 8
  %4 = alloca ptr, align 8
  %5 = alloca ptr, align 8
  store ptr %0, ptr %3, align 8, !tbaa !8
  store ptr %1, ptr %4, align 8, !tbaa !87
  call void @llvm.lifetime.start.p0(i64 8, ptr %5) #3
  %6 = load ptr, ptr %3, align 8, !tbaa !8
  %7 = call noundef double @_ZN6google8protobuf8internal14NoLocaleStrtodEPKcPPc(ptr noundef %6, ptr noundef %5)
  %8 = load ptr, ptr %4, align 8, !tbaa !87
  store double %7, ptr %8, align 8, !tbaa !73
  %9 = load ptr, ptr %5, align 8, !tbaa !8
  %10 = load ptr, ptr %3, align 8, !tbaa !8
  %11 = icmp ne ptr %9, %10
  br i1 %11, label %12, label %21

12:                                               ; preds = %2
  br label %13

13:                                               ; preds = %17, %12
  %14 = load ptr, ptr %5, align 8, !tbaa !8
  %15 = load i8, ptr %14, align 1, !tbaa !10
  %16 = call noundef zeroext i1 @_ZN6google8protobuf13ascii_isspaceEc(i8 noundef signext %15)
  br i1 %16, label %17, label %20

17:                                               ; preds = %13
  %18 = load ptr, ptr %5, align 8, !tbaa !8
  %19 = getelementptr inbounds nuw i8, ptr %18, i32 1
  store ptr %19, ptr %5, align 8, !tbaa !8
  br label %13, !llvm.loop !89

20:                                               ; preds = %13
  br label %21

21:                                               ; preds = %20, %2
  %22 = load ptr, ptr %3, align 8, !tbaa !8
  %23 = load i8, ptr %22, align 1, !tbaa !10
  %24 = sext i8 %23 to i32
  %25 = icmp ne i32 %24, 0
  br i1 %25, label %26, label %31

26:                                               ; preds = %21
  %27 = load ptr, ptr %5, align 8, !tbaa !8
  %28 = load i8, ptr %27, align 1, !tbaa !10
  %29 = sext i8 %28 to i32
  %30 = icmp eq i32 %29, 0
  br label %31

31:                                               ; preds = %26, %21
  %32 = phi i1 [ false, %21 ], [ %30, %26 ]
  call void @llvm.lifetime.end.p0(i64 8, ptr %5) #3
  ret i1 %32
}