; Function Attrs: mustprogress uwtable
define noundef zeroext i1 @_ZN6google8protobuf11safe_strtodEPKcPd(ptr noundef %0, ptr noundef writeonly captures(none) initializes((0, 8)) %1) local_unnamed_addr #6 {
  %3 = alloca ptr, align 8
  call void @llvm.lifetime.start.p0(i64 8, ptr nonnull %3) #31
  %4 = call noundef double @_ZN6google8protobuf8internal14NoLocaleStrtodEPKcPPc(ptr noundef %0, ptr noundef nonnull %3)
  store double %4, ptr %1, align 8, !tbaa !73
  %5 = load ptr, ptr %3, align 8, !tbaa !75
  %.not = icmp eq ptr %5, %0
  br i1 %.not, label %_ZN6google8protobuf13ascii_isspaceEc.exit, label %.preheader

.preheader:                                       ; preds = %2, %8
  %6 = phi ptr [ %9, %8 ], [ %5, %2 ]
  %7 = load i8, ptr %6, align 1, !tbaa !11
  switch i8 %7, label %_ZN6google8protobuf13ascii_isspaceEc.exit [
    i8 32, label %8
    i8 12, label %8
    i8 11, label %8
    i8 10, label %8
    i8 9, label %8
    i8 13, label %8
  ]

8:                                                ; preds = %.preheader, %.preheader, %.preheader, %.preheader, %.preheader, %.preheader
  %9 = getelementptr inbounds nuw i8, ptr %6, i64 1
  store ptr %9, ptr %3, align 8, !tbaa !75
  br label %.preheader, !llvm.loop !85

_ZN6google8protobuf13ascii_isspaceEc.exit:        ; preds = %.preheader, %2
  %10 = phi ptr [ %5, %2 ], [ %6, %.preheader ]
  %11 = load i8, ptr %0, align 1, !tbaa !11
  %.not4 = icmp eq i8 %11, 0
  br i1 %.not4, label %15, label %12

12:                                               ; preds = %_ZN6google8protobuf13ascii_isspaceEc.exit
  %13 = load i8, ptr %10, align 1, !tbaa !11
  %14 = icmp eq i8 %13, 0
  br label %15

15:                                               ; preds = %12, %_ZN6google8protobuf13ascii_isspaceEc.exit
  %16 = phi i1 [ false, %_ZN6google8protobuf13ascii_isspaceEc.exit ], [ %14, %12 ]
  call void @llvm.lifetime.end.p0(i64 8, ptr nonnull %3) #31
  ret i1 %16
}